; Function Attrs: mustprogress nofree norecurse nosync nounwind memory(write, argmem: readwrite, inaccessiblemem: none) uwtable
define hidden void @_ZN2cv9Histogram18setHistogramVectorEPd(ptr noundef nonnull readonly align 8 captures(none) dereferenceable(64) %0, ptr noundef readonly captures(none) %1) local_unnamed_addr #6 align 2 {
  %3 = getelementptr inbounds nuw i8, ptr %0, i64 16
  %4 = getelementptr inbounds nuw i8, ptr %0, i64 24
  %5 = load ptr, ptr %4, align 8, !tbaa !63
  %6 = load ptr, ptr %3, align 8, !tbaa !28
  %.not = icmp eq ptr %5, %6
  br i1 %.not, label %._crit_edge, label %.lr.ph.preheader

.lr.ph.preheader:                                 ; preds = %2
  %7 = ptrtoint ptr %5 to i64
  %8 = ptrtoint ptr %6 to i64
  %9 = sub i64 %7, %8
  %10 = ashr exact i64 %9, 3
  %umax = tail call i64 @llvm.umax.i64(i64 %10, i64 1)
  br label %.lr.ph

._crit_edge:                                      ; preds = %.lr.ph, %2
  ret void

.lr.ph:                                           ; preds = %.lr.ph.preheader, %.lr.ph
  %.05 = phi i64 [ %14, %.lr.ph ], [ 0, %.lr.ph.preheader ]
  %11 = getelementptr inbounds nuw double, ptr %1, i64 %.05
  %12 = load double, ptr %11, align 8, !tbaa !22
  %13 = getelementptr inbounds nuw double, ptr %6, i64 %.05
  store double %12, ptr %13, align 8, !tbaa !22
  %14 = add nuw i64 %.05, 1
  %exitcond.not = icmp eq i64 %14, %umax
  br i1 %exitcond.not, label %._crit_edge, label %.lr.ph, !llvm.loop !66
}